; Function Attrs: mustprogress uwtable
define void @_ZN15TCPStreamDialog35on_actionToggleTimeOrigin_triggeredEv(ptr noundef nonnull align 8 dereferenceable(584) %0) local_unnamed_addr #2 align 2 {
  %2 = getelementptr inbounds i8, ptr %0, i64 96
  %3 = load i8, ptr %2, align 8
  %4 = and i8 %3, 1
  %5 = xor i8 %4, 1
  store i8 %5, ptr %2, align 8
  tail call void @_ZN15TCPStreamDialog9fillGraphEbb(ptr noundef nonnull align 8 dereferenceable(584) %0, i1 noundef zeroext true, i1 noundef zeroext true)
  ret void
}